target datalayout = "e-m:e-p270:32:32-p271:32:32-p272:64:64-i64:64-i128:128-f80:128-n8:16:32:64-S128"
target triple = "x86_64-unknown-linux-gnu"

%"class.icu_75::UTF16CollationIterator" = type { %"class.icu_75::CollationIterator.base", ptr, ptr, ptr }
%"class.icu_75::CollationIterator.base" = type <{ %"class.icu_75::UObject", ptr, ptr, %"class.icu_75::CollationIterator::CEBuffer", i32, [4 x i8], ptr, i32, i8 }>
%"class.icu_75::UObject" = type { ptr }
%"class.icu_75::CollationIterator::CEBuffer" = type { i32, %"class.icu_75::MaybeStackArray.0" }
%"class.icu_75::MaybeStackArray.0" = type { ptr, i32, i8, [40 x i64] }

; Function Attrs: mustprogress nounwind uwtable
define void @_ZN6icu_7522UTF16CollationIterator21backwardNumCodePointsEiR10UErrorCode(ptr noundef nonnull align 8 dereferenceable(416) %this, i32 noundef %num, ptr noundef nonnull align 4 dereferenceable(4) %0) unnamed_addr #0 align 2 {
entry:
  %this.addr = alloca ptr, align 8
  %num.addr = alloca i32, align 4
  %.addr = alloca ptr, align 8
  %c = alloca i32, align 4
  store ptr %this, ptr %this.addr, align 8
  store i32 %num, ptr %num.addr, align 4
  store ptr %0, ptr %.addr, align 8
  %this1 = load ptr, ptr %this.addr, align 8
  br label %while.cond

while.cond:                                       ; preds = %if.end, %entry
  %1 = load i32, ptr %num.addr, align 4
  %cmp = icmp sgt i32 %1, 0
  br i1 %cmp, label %land.rhs, label %land.end

land.rhs:                                         ; preds = %while.cond
  %pos = getelementptr inbounds %"class.icu_75::UTF16CollationIterator", ptr %this1, i32 0, i32 2
  %2 = load ptr, ptr %pos, align 8
  %start = getelementptr inbounds %"class.icu_75::UTF16CollationIterator", ptr %this1, i32 0, i32 1
  %3 = load ptr, ptr %start, align 8
  %cmp2 = icmp ne ptr %2, %3
  br label %land.end

land.end:                                         ; preds = %land.rhs, %while.cond
  %4 = phi i1 [ false, %while.cond ], [ %cmp2, %land.rhs ]
  br i1 %4, label %while.body, label %while.end

while.body:                                       ; preds = %land.end
  %pos3 = getelementptr inbounds %"class.icu_75::UTF16CollationIterator", ptr %this1, i32 0, i32 2
  %5 = load ptr, ptr %pos3, align 8
  %incdec.ptr = getelementptr inbounds i16, ptr %5, i32 -1
  store ptr %incdec.ptr, ptr %pos3, align 8
  %6 = load i16, ptr %incdec.ptr, align 2
  %conv = zext i16 %6 to i32
  store i32 %conv, ptr %c, align 4
  %7 = load i32, ptr %num.addr, align 4
  %dec = add nsw i32 %7, -1
  store i32 %dec, ptr %num.addr, align 4
  %8 = load i32, ptr %c, align 4
  %and = and i32 %8, -1024
  %cmp4 = icmp eq i32 %and, 56320
  br i1 %cmp4, label %land.lhs.true, label %if.end

land.lhs.true:                                    ; preds = %while.body
  %pos5 = getelementptr inbounds %"class.icu_75::UTF16CollationIterator", ptr %this1, i32 0, i32 2
  %9 = load ptr, ptr %pos5, align 8
  %start6 = getelementptr inbounds %"class.icu_75::UTF16CollationIterator", ptr %this1, i32 0, i32 1
  %10 = load ptr, ptr %start6, align 8
  %cmp7 = icmp ne ptr %9, %10
  br i1 %cmp7, label %land.lhs.true8, label %if.end

land.lhs.true8:                                   ; preds = %land.lhs.true
  %pos9 = getelementptr inbounds %"class.icu_75::UTF16CollationIterator", ptr %this1, i32 0, i32 2
  %11 = load ptr, ptr %pos9, align 8
  %add.ptr = getelementptr inbounds i16, ptr %11, i64 -1
  %12 = load i16, ptr %add.ptr, align 2
  %conv10 = zext i16 %12 to i32
  %and11 = and i32 %conv10, -1024
  %cmp12 = icmp eq i32 %and11, 55296
  br i1 %cmp12, label %if.then, label %if.end

if.then:                                          ; preds = %land.lhs.true8
  %pos13 = getelementptr inbounds %"class.icu_75::UTF16CollationIterator", ptr %this1, i32 0, i32 2
  %13 = load ptr, ptr %pos13, align 8
  %incdec.ptr14 = getelementptr inbounds i16, ptr %13, i32 -1
  store ptr %incdec.ptr14, ptr %pos13, align 8
  br label %if.end

if.end:                                           ; preds = %if.then, %land.lhs.true8, %land.lhs.true, %while.body
  br label %while.cond, !llvm.loop !6

while.end:                                        ; preds = %land.end
  ret void
}