; Function Attrs: mustprogress nofree norecurse nosync nounwind memory(read, argmem: readwrite, inaccessiblemem: none) uwtable
define void @_ZN6icu_7522UTF16CollationIterator21backwardNumCodePointsEiR10UErrorCode(ptr nocapture noundef nonnull align 8 dereferenceable(416) %this, i32 noundef %num, ptr nocapture nonnull readnone align 4 %0) unnamed_addr #10 align 2 {
entry:
  %pos = getelementptr inbounds i8, ptr %this, i64 400
  %cmp2 = icmp sgt i32 %num, 0
  br i1 %cmp2, label %land.rhs.lr.ph, label %while.end

land.rhs.lr.ph:                                   ; preds = %entry
  %pos.promoted = load ptr, ptr %pos, align 8
  %start = getelementptr inbounds i8, ptr %this, i64 392
  %1 = load ptr, ptr %start, align 8
  br label %land.rhs

land.rhs:                                         ; preds = %land.rhs.lr.ph, %if.end
  %num.addr.03 = phi i32 [ %num, %land.rhs.lr.ph ], [ %dec, %if.end ]
  %2 = phi ptr [ %pos.promoted, %land.rhs.lr.ph ], [ %7, %if.end ]
  %cmp2.not = icmp eq ptr %2, %1
  br i1 %cmp2.not, label %while.end, label %while.body

while.body:                                       ; preds = %land.rhs
  %incdec.ptr = getelementptr inbounds i8, ptr %2, i64 -2
  store ptr %incdec.ptr, ptr %pos, align 8
  %3 = load i16, ptr %incdec.ptr, align 2
  %dec = add nsw i32 %num.addr.03, -1
  %4 = and i16 %3, -1024
  %cmp4 = icmp ne i16 %4, -9216
  %cmp7.not = icmp eq ptr %incdec.ptr, %1
  %or.cond = or i1 %cmp7.not, %cmp4
  br i1 %or.cond, label %if.end, label %land.lhs.true8

land.lhs.true8:                                   ; preds = %while.body
  %add.ptr = getelementptr inbounds i8, ptr %2, i64 -4
  %5 = load i16, ptr %add.ptr, align 2
  %6 = and i16 %5, -1024
  %cmp12 = icmp eq i16 %6, -10240
  br i1 %cmp12, label %if.then, label %if.end

if.then:                                          ; preds = %land.lhs.true8
  store ptr %add.ptr, ptr %pos, align 8
  br label %if.end

if.end:                                           ; preds = %if.then, %land.lhs.true8, %while.body
  %7 = phi ptr [ %add.ptr, %if.then ], [ %incdec.ptr, %land.lhs.true8 ], [ %incdec.ptr, %while.body ]
  %cmp = icmp ugt i32 %num.addr.03, 1
  br i1 %cmp, label %land.rhs, label %while.end, !llvm.loop !6

while.end:                                        ; preds = %land.rhs, %if.end, %entry
  ret void
}